target datalayout = "e-m:e-p270:32:32-p271:32:32-p272:64:64-i64:64-i128:128-f80:128-n8:16:32:64-S128"
target triple = "x86_64-pc-linux-gnu"

%struct.ma_context = type { %struct.ma_backend_callbacks, i32, ptr, %struct.ma_log, i32, i64, ptr, %struct.ma_allocation_callbacks, %union.pthread_mutex_t, %union.pthread_mutex_t, i32, i32, i32, ptr, %union.anon.36, %union.anon.41 }
%struct.ma_backend_callbacks = type { ptr, ptr, ptr, ptr, ptr, ptr, ptr, ptr, ptr, ptr, ptr, ptr, ptr }
%struct.ma_log = type { [4 x %struct.ma_log_callback], i32, %struct.ma_allocation_callbacks, %union.pthread_mutex_t }
%struct.ma_log_callback = type { ptr, ptr }
%struct.ma_allocation_callbacks = type { ptr, ptr, ptr, ptr }
%union.anon.36 = type { %struct.anon.37 }
%struct.anon.37 = type { ptr, ptr, ptr, ptr, ptr, ptr, ptr, ptr, ptr, ptr, ptr, ptr, ptr, ptr, ptr, ptr, ptr, ptr, ptr, ptr, ptr, ptr, ptr, ptr, ptr, ptr, ptr, ptr, ptr, ptr, ptr, ptr, ptr, ptr, ptr, ptr, ptr, ptr, ptr, ptr, ptr, ptr, ptr, ptr, ptr, ptr, ptr, ptr, ptr, ptr, ptr, ptr, ptr, ptr, ptr, ptr, ptr, ptr, ptr, ptr, ptr, ptr, ptr, ptr, ptr, ptr, ptr, %union.pthread_mutex_t, i32 }
%union.anon.41 = type { %struct.anon.42 }
%struct.anon.42 = type { i32 }
%union.pthread_mutex_t = type { %struct.__pthread_mutex_s }
%struct.__pthread_mutex_s = type { i32, i32, i32, i32, i32, i16, i16, %struct.__pthread_internal_list }
%struct.__pthread_internal_list = type { ptr, ptr }

; Function Attrs: nounwind uwtable
define hidden i32 @ma_is_loopback_supported(i32 noundef %0) #0 {
  %2 = alloca i32, align 4
  %3 = alloca i32, align 4
  store i32 %0, ptr %3, align 4
  %4 = load i32, ptr %3, align 4
  switch i32 %4, label %20 [
    i32 0, label %5
    i32 1, label %6
    i32 2, label %7
    i32 3, label %8
    i32 4, label %9
    i32 5, label %10
    i32 6, label %11
    i32 7, label %12
    i32 8, label %13
    i32 9, label %14
    i32 10, label %15
    i32 11, label %16
    i32 12, label %17
    i32 13, label %18
    i32 14, label %19
  ]

5:                                                ; preds = %1
  store i32 1, ptr %2, align 4
  br label %21

6:                                                ; preds = %1
  store i32 0, ptr %2, align 4
  br label %21

7:                                                ; preds = %1
  store i32 0, ptr %2, align 4
  br label %21

8:                                                ; preds = %1
  store i32 0, ptr %2, align 4
  br label %21

9:                                                ; preds = %1
  store i32 0, ptr %2, align 4
  br label %21

10:                                               ; preds = %1
  store i32 0, ptr %2, align 4
  br label %21

11:                                               ; preds = %1
  store i32 0, ptr %2, align 4
  br label %21

12:                                               ; preds = %1
  store i32 0, ptr %2, align 4
  br label %21

13:                                               ; preds = %1
  store i32 0, ptr %2, align 4
  br label %21

14:                                               ; preds = %1
  store i32 0, ptr %2, align 4
  br label %21

15:                                               ; preds = %1
  store i32 0, ptr %2, align 4
  br label %21

16:                                               ; preds = %1
  store i32 0, ptr %2, align 4
  br label %21

17:                                               ; preds = %1
  store i32 0, ptr %2, align 4
  br label %21

18:                                               ; preds = %1
  store i32 0, ptr %2, align 4
  br label %21

19:                                               ; preds = %1
  store i32 0, ptr %2, align 4
  br label %21

20:                                               ; preds = %1
  store i32 0, ptr %2, align 4
  br label %21

21:                                               ; preds = %20, %19, %18, %17, %16, %15, %14, %13, %12, %11, %10, %9, %8, %7, %6, %5
  %22 = load i32, ptr %2, align 4
  ret i32 %22
}

; Function Attrs: nounwind uwtable
define hidden i32 @ma_context_is_loopback_supported(ptr noundef %0) #0 {
  %2 = alloca i32, align 4
  %3 = alloca ptr, align 8
  store ptr %0, ptr %3, align 8
  %4 = load ptr, ptr %3, align 8
  %5 = icmp eq ptr %4, null
  br i1 %5, label %6, label %7

6:                                                ; preds = %1
  store i32 0, ptr %2, align 4
  br label %12

7:                                                ; preds = %1
  %8 = load ptr, ptr %3, align 8
  %9 = getelementptr inbounds nuw %struct.ma_context, ptr %8, i32 0, i32 1
  %10 = load i32, ptr %9, align 8
  %11 = call i32 @ma_is_loopback_supported(i32 noundef %10)
  store i32 %11, ptr %2, align 4
  br label %12

12:                                               ; preds = %7, %6
  %13 = load i32, ptr %2, align 4
  ret i32 %13
}