; Function Attrs: mustprogress nofree norecurse nosync nounwind willreturn memory(argmem: read) uwtable
define hidden range(i32 0, 2) i32 @ma_context_is_loopback_supported(ptr noundef readonly captures(address_is_null) %0) local_unnamed_addr #17 {
  %2 = icmp eq ptr %0, null
  br i1 %2, label %6, label %3

3:                                                ; preds = %1
  %4 = getelementptr inbounds nuw i8, ptr %0, i64 104
  %5 = load i32, ptr %4, align 8
  %cond.i = icmp eq i32 %5, 0
  %..i = zext i1 %cond.i to i32
  br label %6

6:                                                ; preds = %1, %3
  %.0 = phi i32 [ %..i, %3 ], [ 0, %1 ]
  ret i32 %.0
}